target datalayout = "e-m:e-p270:32:32-p271:32:32-p272:64:64-i64:64-i128:128-f80:128-n8:16:32:64-S128"
target triple = "x86_64-pc-linux-gnu"

%struct.parms_atomic = type { i32, i32, i32, i32 }

; Function Attrs: nounwind uwtable
define internal void @H5Z__nbit_next_byte(ptr noundef %0, ptr noundef %1) #0 {
  %3 = alloca ptr, align 8
  %4 = alloca ptr, align 8
  store ptr %0, ptr %3, align 8, !tbaa !22
  store ptr %1, ptr %4, align 8, !tbaa !22
  %5 = load ptr, ptr %3, align 8, !tbaa !22
  %6 = load i64, ptr %5, align 8, !tbaa !3
  %7 = add i64 %6, 1
  store i64 %7, ptr %5, align 8, !tbaa !3
  %8 = load ptr, ptr %4, align 8, !tbaa !22
  store i64 8, ptr %8, align 8, !tbaa !3
  ret void
}

; Function Attrs: nounwind uwtable
define internal void @H5Z__nbit_compress_one_nooptype(ptr noundef %0, i64 noundef %1, ptr noundef %2, ptr noundef %3, ptr noundef %4, i32 noundef %5) #0 {
  %7 = alloca ptr, align 8
  %8 = alloca i64, align 8
  %9 = alloca ptr, align 8
  %10 = alloca ptr, align 8
  %11 = alloca ptr, align 8
  %12 = alloca i32, align 4
  %13 = alloca i32, align 4
  %14 = alloca i64, align 8
  %15 = alloca i8, align 1
  store ptr %0, ptr %7, align 8, !tbaa !25
  store i64 %1, ptr %8, align 8, !tbaa !3
  store ptr %2, ptr %9, align 8, !tbaa !25
  store ptr %3, ptr %10, align 8, !tbaa !22
  store ptr %4, ptr %11, align 8, !tbaa !22
  store i32 %5, ptr %12, align 4, !tbaa !7
  call void @llvm.lifetime.start.p0(i64 4, ptr %13) #6
  call void @llvm.lifetime.start.p0(i64 8, ptr %14) #6
  call void @llvm.lifetime.start.p0(i64 1, ptr %15) #6
  store i32 0, ptr %13, align 4, !tbaa !7
  br label %16

16:                                               ; preds = %84, %6
  %17 = load i32, ptr %13, align 4, !tbaa !7
  %18 = load i32, ptr %12, align 4, !tbaa !7
  %19 = icmp ult i32 %17, %18
  br i1 %19, label %20, label %87

20:                                               ; preds = %16
  %21 = load ptr, ptr %7, align 8, !tbaa !25
  %22 = load i64, ptr %8, align 8, !tbaa !3
  %23 = load i32, ptr %13, align 4, !tbaa !7
  %24 = zext i32 %23 to i64
  %25 = add i64 %22, %24
  %26 = getelementptr inbounds nuw i8, ptr %21, i64 %25
  %27 = load i8, ptr %26, align 1, !tbaa !49
  store i8 %27, ptr %15, align 1, !tbaa !49
  store i64 8, ptr %14, align 8, !tbaa !3
  %28 = load i8, ptr %15, align 1, !tbaa !49
  %29 = zext i8 %28 to i32
  %30 = load i64, ptr %14, align 8, !tbaa !3
  %31 = load ptr, ptr %11, align 8, !tbaa !22
  %32 = load i64, ptr %31, align 8, !tbaa !3
  %33 = sub i64 %30, %32
  %34 = trunc i64 %33 to i32
  %35 = ashr i32 %29, %34
  %36 = load ptr, ptr %11, align 8, !tbaa !22
  %37 = load i64, ptr %36, align 8, !tbaa !3
  %38 = trunc i64 %37 to i32
  %39 = shl i32 -1, %38
  %40 = xor i32 %39, -1
  %41 = and i32 %35, %40
  %42 = trunc i32 %41 to i8
  %43 = zext i8 %42 to i32
  %44 = load ptr, ptr %9, align 8, !tbaa !25
  %45 = load ptr, ptr %10, align 8, !tbaa !22
  %46 = load i64, ptr %45, align 8, !tbaa !3
  %47 = getelementptr inbounds nuw i8, ptr %44, i64 %46
  %48 = load i8, ptr %47, align 1, !tbaa !49
  %49 = zext i8 %48 to i32
  %50 = or i32 %49, %43
  %51 = trunc i32 %50 to i8
  store i8 %51, ptr %47, align 1, !tbaa !49
  %52 = load ptr, ptr %11, align 8, !tbaa !22
  %53 = load i64, ptr %52, align 8, !tbaa !3
  %54 = load i64, ptr %14, align 8, !tbaa !3
  %55 = sub i64 %54, %53
  store i64 %55, ptr %14, align 8, !tbaa !3
  %56 = load ptr, ptr %10, align 8, !tbaa !22
  %57 = load ptr, ptr %11, align 8, !tbaa !22
  call void @H5Z__nbit_next_byte(ptr noundef %56, ptr noundef %57)
  %58 = load i64, ptr %14, align 8, !tbaa !3
  %59 = icmp eq i64 %58, 0
  br i1 %59, label %60, label %61

60:                                               ; preds = %20
  br label %84

61:                                               ; preds = %20
  %62 = load i8, ptr %15, align 1, !tbaa !49
  %63 = zext i8 %62 to i32
  %64 = load i64, ptr %14, align 8, !tbaa !3
  %65 = trunc i64 %64 to i32
  %66 = shl i32 -1, %65
  %67 = xor i32 %66, -1
  %68 = and i32 %63, %67
  %69 = load ptr, ptr %11, align 8, !tbaa !22
  %70 = load i64, ptr %69, align 8, !tbaa !3
  %71 = load i64, ptr %14, align 8, !tbaa !3
  %72 = sub i64 %70, %71
  %73 = trunc i64 %72 to i32
  %74 = shl i32 %68, %73
  %75 = trunc i32 %74 to i8
  %76 = load ptr, ptr %9, align 8, !tbaa !25
  %77 = load ptr, ptr %10, align 8, !tbaa !22
  %78 = load i64, ptr %77, align 8, !tbaa !3
  %79 = getelementptr inbounds nuw i8, ptr %76, i64 %78
  store i8 %75, ptr %79, align 1, !tbaa !49
  %80 = load i64, ptr %14, align 8, !tbaa !3
  %81 = load ptr, ptr %11, align 8, !tbaa !22
  %82 = load i64, ptr %81, align 8, !tbaa !3
  %83 = sub i64 %82, %80
  store i64 %83, ptr %81, align 8, !tbaa !3
  br label %84

84:                                               ; preds = %61, %60
  %85 = load i32, ptr %13, align 4, !tbaa !7
  %86 = add i32 %85, 1
  store i32 %86, ptr %13, align 4, !tbaa !7
  br label %16, !llvm.loop !57

87:                                               ; preds = %16
  call void @llvm.lifetime.end.p0(i64 1, ptr %15) #6
  call void @llvm.lifetime.end.p0(i64 8, ptr %14) #6
  call void @llvm.lifetime.end.p0(i64 4, ptr %13) #6
  ret void
}

; Function Attrs: nounwind uwtable
define internal void @H5Z__nbit_compress_one_array(ptr noundef %0, i64 noundef %1, ptr noundef %2, ptr noundef %3, ptr noundef %4, ptr noundef %5, ptr noundef %6) #0 {
  %8 = alloca ptr, align 8
  %9 = alloca i64, align 8
  %10 = alloca ptr, align 8
  %11 = alloca ptr, align 8
  %12 = alloca ptr, align 8
  %13 = alloca ptr, align 8
  %14 = alloca ptr, align 8
  %15 = alloca i32, align 4
  %16 = alloca i32, align 4
  %17 = alloca i32, align 4
  %18 = alloca i32, align 4
  %19 = alloca i32, align 4
  %20 = alloca i32, align 4
  %21 = alloca %struct.parms_atomic, align 4
  store ptr %0, ptr %8, align 8, !tbaa !25
  store i64 %1, ptr %9, align 8, !tbaa !3
  store ptr %2, ptr %10, align 8, !tbaa !25
  store ptr %3, ptr %11, align 8, !tbaa !22
  store ptr %4, ptr %12, align 8, !tbaa !22
  store ptr %5, ptr %13, align 8, !tbaa !16
  store ptr %6, ptr %14, align 8, !tbaa !16
  call void @llvm.lifetime.start.p0(i64 4, ptr %15) #6
  call void @llvm.lifetime.start.p0(i64 4, ptr %16) #6
  call void @llvm.lifetime.start.p0(i64 4, ptr %17) #6
  call void @llvm.lifetime.start.p0(i64 4, ptr %18) #6
  call void @llvm.lifetime.start.p0(i64 4, ptr %19) #6
  call void @llvm.lifetime.start.p0(i64 4, ptr %20) #6
  call void @llvm.lifetime.start.p0(i64 16, ptr %21) #6
  %22 = load ptr, ptr %13, align 8, !tbaa !16
  %23 = load ptr, ptr %14, align 8, !tbaa !16
  %24 = load i32, ptr %23, align 4, !tbaa !7
  %25 = add i32 %24, 1
  store i32 %25, ptr %23, align 4, !tbaa !7
  %26 = zext i32 %24 to i64
  %27 = getelementptr inbounds nuw i32, ptr %22, i64 %26
  %28 = load i32, ptr %27, align 4, !tbaa !7
  store i32 %28, ptr %16, align 4, !tbaa !7
  %29 = load ptr, ptr %13, align 8, !tbaa !16
  %30 = load ptr, ptr %14, align 8, !tbaa !16
  %31 = load i32, ptr %30, align 4, !tbaa !7
  %32 = add i32 %31, 1
  store i32 %32, ptr %30, align 4, !tbaa !7
  %33 = zext i32 %31 to i64
  %34 = getelementptr inbounds nuw i32, ptr %29, i64 %33
  %35 = load i32, ptr %34, align 4, !tbaa !7
  store i32 %35, ptr %17, align 4, !tbaa !7
  %36 = load i32, ptr %17, align 4, !tbaa !7
  switch i32 %36, label %177 [
    i32 1, label %37
    i32 2, label %95
    i32 3, label %131
    i32 4, label %167
  ]

37:                                               ; preds = %7
  %38 = load ptr, ptr %13, align 8, !tbaa !16
  %39 = load ptr, ptr %14, align 8, !tbaa !16
  %40 = load i32, ptr %39, align 4, !tbaa !7
  %41 = add i32 %40, 1
  store i32 %41, ptr %39, align 4, !tbaa !7
  %42 = zext i32 %40 to i64
  %43 = getelementptr inbounds nuw i32, ptr %38, i64 %42
  %44 = load i32, ptr %43, align 4, !tbaa !7
  %45 = getelementptr inbounds nuw %struct.parms_atomic, ptr %21, i32 0, i32 0
  store i32 %44, ptr %45, align 4, !tbaa !32
  %46 = load ptr, ptr %13, align 8, !tbaa !16
  %47 = load ptr, ptr %14, align 8, !tbaa !16
  %48 = load i32, ptr %47, align 4, !tbaa !7
  %49 = add i32 %48, 1
  store i32 %49, ptr %47, align 4, !tbaa !7
  %50 = zext i32 %48 to i64
  %51 = getelementptr inbounds nuw i32, ptr %46, i64 %50
  %52 = load i32, ptr %51, align 4, !tbaa !7
  %53 = getelementptr inbounds nuw %struct.parms_atomic, ptr %21, i32 0, i32 1
  store i32 %52, ptr %53, align 4, !tbaa !34
  %54 = load ptr, ptr %13, align 8, !tbaa !16
  %55 = load ptr, ptr %14, align 8, !tbaa !16
  %56 = load i32, ptr %55, align 4, !tbaa !7
  %57 = add i32 %56, 1
  store i32 %57, ptr %55, align 4, !tbaa !7
  %58 = zext i32 %56 to i64
  %59 = getelementptr inbounds nuw i32, ptr %54, i64 %58
  %60 = load i32, ptr %59, align 4, !tbaa !7
  %61 = getelementptr inbounds nuw %struct.parms_atomic, ptr %21, i32 0, i32 2
  store i32 %60, ptr %61, align 4, !tbaa !35
  %62 = load ptr, ptr %13, align 8, !tbaa !16
  %63 = load ptr, ptr %14, align 8, !tbaa !16
  %64 = load i32, ptr %63, align 4, !tbaa !7
  %65 = add i32 %64, 1
  store i32 %65, ptr %63, align 4, !tbaa !7
  %66 = zext i32 %64 to i64
  %67 = getelementptr inbounds nuw i32, ptr %62, i64 %66
  %68 = load i32, ptr %67, align 4, !tbaa !7
  %69 = getelementptr inbounds nuw %struct.parms_atomic, ptr %21, i32 0, i32 3
  store i32 %68, ptr %69, align 4, !tbaa !36
  %70 = load i32, ptr %16, align 4, !tbaa !7
  %71 = getelementptr inbounds nuw %struct.parms_atomic, ptr %21, i32 0, i32 0
  %72 = load i32, ptr %71, align 4, !tbaa !32
  %73 = udiv i32 %70, %72
  store i32 %73, ptr %19, align 4, !tbaa !7
  store i32 0, ptr %15, align 4, !tbaa !7
  br label %74

74:                                               ; preds = %91, %37
  %75 = load i32, ptr %15, align 4, !tbaa !7
  %76 = load i32, ptr %19, align 4, !tbaa !7
  %77 = icmp ult i32 %75, %76
  br i1 %77, label %78, label %94

78:                                               ; preds = %74
  %79 = load ptr, ptr %8, align 8, !tbaa !25
  %80 = load i64, ptr %9, align 8, !tbaa !3
  %81 = load i32, ptr %15, align 4, !tbaa !7
  %82 = zext i32 %81 to i64
  %83 = getelementptr inbounds nuw %struct.parms_atomic, ptr %21, i32 0, i32 0
  %84 = load i32, ptr %83, align 4, !tbaa !32
  %85 = zext i32 %84 to i64
  %86 = mul i64 %82, %85
  %87 = add i64 %80, %86
  %88 = load ptr, ptr %10, align 8, !tbaa !25
  %89 = load ptr, ptr %11, align 8, !tbaa !22
  %90 = load ptr, ptr %12, align 8, !tbaa !22
  call void @H5Z__nbit_compress_one_atomic(ptr noundef %79, i64 noundef %87, ptr noundef %88, ptr noundef %89, ptr noundef %90, ptr noundef %21)
  br label %91

91:                                               ; preds = %78
  %92 = load i32, ptr %15, align 4, !tbaa !7
  %93 = add i32 %92, 1
  store i32 %93, ptr %15, align 4, !tbaa !7
  br label %74, !llvm.loop !53

94:                                               ; preds = %74
  br label %178

95:                                               ; preds = %7
  %96 = load ptr, ptr %13, align 8, !tbaa !16
  %97 = load ptr, ptr %14, align 8, !tbaa !16
  %98 = load i32, ptr %97, align 4, !tbaa !7
  %99 = zext i32 %98 to i64
  %100 = getelementptr inbounds nuw i32, ptr %96, i64 %99
  %101 = load i32, ptr %100, align 4, !tbaa !7
  store i32 %101, ptr %18, align 4, !tbaa !7
  %102 = load i32, ptr %16, align 4, !tbaa !7
  %103 = load i32, ptr %18, align 4, !tbaa !7
  %104 = udiv i32 %102, %103
  store i32 %104, ptr %19, align 4, !tbaa !7
  %105 = load ptr, ptr %14, align 8, !tbaa !16
  %106 = load i32, ptr %105, align 4, !tbaa !7
  store i32 %106, ptr %20, align 4, !tbaa !7
  store i32 0, ptr %15, align 4, !tbaa !7
  br label %107

107:                                              ; preds = %127, %95
  %108 = load i32, ptr %15, align 4, !tbaa !7
  %109 = load i32, ptr %19, align 4, !tbaa !7
  %110 = icmp ult i32 %108, %109
  br i1 %110, label %111, label %130

111:                                              ; preds = %107
  %112 = load ptr, ptr %8, align 8, !tbaa !25
  %113 = load i64, ptr %9, align 8, !tbaa !3
  %114 = load i32, ptr %15, align 4, !tbaa !7
  %115 = zext i32 %114 to i64
  %116 = load i32, ptr %18, align 4, !tbaa !7
  %117 = zext i32 %116 to i64
  %118 = mul i64 %115, %117
  %119 = add i64 %113, %118
  %120 = load ptr, ptr %10, align 8, !tbaa !25
  %121 = load ptr, ptr %11, align 8, !tbaa !22
  %122 = load ptr, ptr %12, align 8, !tbaa !22
  %123 = load ptr, ptr %13, align 8, !tbaa !16
  %124 = load ptr, ptr %14, align 8, !tbaa !16
  call void @H5Z__nbit_compress_one_array(ptr noundef %112, i64 noundef %119, ptr noundef %120, ptr noundef %121, ptr noundef %122, ptr noundef %123, ptr noundef %124)
  %125 = load i32, ptr %20, align 4, !tbaa !7
  %126 = load ptr, ptr %14, align 8, !tbaa !16
  store i32 %125, ptr %126, align 4, !tbaa !7
  br label %127

127:                                              ; preds = %111
  %128 = load i32, ptr %15, align 4, !tbaa !7
  %129 = add i32 %128, 1
  store i32 %129, ptr %15, align 4, !tbaa !7
  br label %107, !llvm.loop !54

130:                                              ; preds = %107
  br label %178

131:                                              ; preds = %7
  %132 = load ptr, ptr %13, align 8, !tbaa !16
  %133 = load ptr, ptr %14, align 8, !tbaa !16
  %134 = load i32, ptr %133, align 4, !tbaa !7
  %135 = zext i32 %134 to i64
  %136 = getelementptr inbounds nuw i32, ptr %132, i64 %135
  %137 = load i32, ptr %136, align 4, !tbaa !7
  store i32 %137, ptr %18, align 4, !tbaa !7
  %138 = load i32, ptr %16, align 4, !tbaa !7
  %139 = load i32, ptr %18, align 4, !tbaa !7
  %140 = udiv i32 %138, %139
  store i32 %140, ptr %19, align 4, !tbaa !7
  %141 = load ptr, ptr %14, align 8, !tbaa !16
  %142 = load i32, ptr %141, align 4, !tbaa !7
  store i32 %142, ptr %20, align 4, !tbaa !7
  store i32 0, ptr %15, align 4, !tbaa !7
  br label %143

143:                                              ; preds = %163, %131
  %144 = load i32, ptr %15, align 4, !tbaa !7
  %145 = load i32, ptr %19, align 4, !tbaa !7
  %146 = icmp ult i32 %144, %145
  br i1 %146, label %147, label %166

147:                                              ; preds = %143
  %148 = load ptr, ptr %8, align 8, !tbaa !25
  %149 = load i64, ptr %9, align 8, !tbaa !3
  %150 = load i32, ptr %15, align 4, !tbaa !7
  %151 = zext i32 %150 to i64
  %152 = load i32, ptr %18, align 4, !tbaa !7
  %153 = zext i32 %152 to i64
  %154 = mul i64 %151, %153
  %155 = add i64 %149, %154
  %156 = load ptr, ptr %10, align 8, !tbaa !25
  %157 = load ptr, ptr %11, align 8, !tbaa !22
  %158 = load ptr, ptr %12, align 8, !tbaa !22
  %159 = load ptr, ptr %13, align 8, !tbaa !16
  %160 = load ptr, ptr %14, align 8, !tbaa !16
  call void @H5Z__nbit_compress_one_compound(ptr noundef %148, i64 noundef %155, ptr noundef %156, ptr noundef %157, ptr noundef %158, ptr noundef %159, ptr noundef %160)
  %161 = load i32, ptr %20, align 4, !tbaa !7
  %162 = load ptr, ptr %14, align 8, !tbaa !16
  store i32 %161, ptr %162, align 4, !tbaa !7
  br label %163

163:                                              ; preds = %147
  %164 = load i32, ptr %15, align 4, !tbaa !7
  %165 = add i32 %164, 1
  store i32 %165, ptr %15, align 4, !tbaa !7
  br label %143, !llvm.loop !55

166:                                              ; preds = %143
  br label %178

167:                                              ; preds = %7
  %168 = load ptr, ptr %14, align 8, !tbaa !16
  %169 = load i32, ptr %168, align 4, !tbaa !7
  %170 = add i32 %169, 1
  store i32 %170, ptr %168, align 4, !tbaa !7
  %171 = load ptr, ptr %8, align 8, !tbaa !25
  %172 = load i64, ptr %9, align 8, !tbaa !3
  %173 = load ptr, ptr %10, align 8, !tbaa !25
  %174 = load ptr, ptr %11, align 8, !tbaa !22
  %175 = load ptr, ptr %12, align 8, !tbaa !22
  %176 = load i32, ptr %16, align 4, !tbaa !7
  call void @H5Z__nbit_compress_one_nooptype(ptr noundef %171, i64 noundef %172, ptr noundef %173, ptr noundef %174, ptr noundef %175, i32 noundef %176)
  br label %178

177:                                              ; preds = %7
  br label %178

178:                                              ; preds = %177, %167, %166, %130, %94
  call void @llvm.lifetime.end.p0(i64 16, ptr %21) #6
  call void @llvm.lifetime.end.p0(i64 4, ptr %20) #6
  call void @llvm.lifetime.end.p0(i64 4, ptr %19) #6
  call void @llvm.lifetime.end.p0(i64 4, ptr %18) #6
  call void @llvm.lifetime.end.p0(i64 4, ptr %17) #6
  call void @llvm.lifetime.end.p0(i64 4, ptr %16) #6
  call void @llvm.lifetime.end.p0(i64 4, ptr %15) #6
  ret void
}