; Function Attrs: nofree nosync nounwind memory(argmem: readwrite) uwtable
define internal fastcc void @H5Z__nbit_compress_one_array(ptr noundef readonly captures(none) %0, i64 noundef %1, ptr noundef nonnull captures(none) %2, ptr noundef nonnull captures(none) %3, ptr noundef nonnull captures(none) %4, ptr noundef readonly captures(none) %5, ptr noundef nonnull captures(none) %6) unnamed_addr #5 {
  %8 = alloca %struct.parms_atomic, align 4
  call void @llvm.lifetime.start.p0(i64 16, ptr nonnull %8) #8
  %9 = load i32, ptr %6, align 4, !tbaa !12
  %10 = add i32 %9, 1
  store i32 %10, ptr %6, align 4, !tbaa !12
  %11 = zext i32 %9 to i64
  %12 = getelementptr inbounds nuw i32, ptr %5, i64 %11
  %13 = load i32, ptr %12, align 4, !tbaa !12
  %14 = add i32 %9, 2
  store i32 %14, ptr %6, align 4, !tbaa !12
  %15 = zext i32 %10 to i64
  %16 = getelementptr inbounds nuw i32, ptr %5, i64 %15
  %17 = load i32, ptr %16, align 4, !tbaa !12
  switch i32 %17, label %H5Z__nbit_compress_one_nooptype.exit [
    i32 1, label %18
    i32 2, label %45
    i32 3, label %56
    i32 4, label %67
  ]

18:                                               ; preds = %7
  %19 = add i32 %9, 3
  store i32 %19, ptr %6, align 4, !tbaa !12
  %20 = zext i32 %14 to i64
  %21 = getelementptr inbounds nuw i32, ptr %5, i64 %20
  %22 = load i32, ptr %21, align 4, !tbaa !12
  store i32 %22, ptr %8, align 4, !tbaa !16
  %23 = add i32 %9, 4
  store i32 %23, ptr %6, align 4, !tbaa !12
  %24 = zext i32 %19 to i64
  %25 = getelementptr inbounds nuw i32, ptr %5, i64 %24
  %26 = load i32, ptr %25, align 4, !tbaa !12
  %27 = getelementptr inbounds nuw i8, ptr %8, i64 4
  store i32 %26, ptr %27, align 4, !tbaa !18
  %28 = add i32 %9, 5
  store i32 %28, ptr %6, align 4, !tbaa !12
  %29 = zext i32 %23 to i64
  %30 = getelementptr inbounds nuw i32, ptr %5, i64 %29
  %31 = load i32, ptr %30, align 4, !tbaa !12
  %32 = getelementptr inbounds nuw i8, ptr %8, i64 8
  store i32 %31, ptr %32, align 4, !tbaa !19
  %33 = add i32 %9, 6
  store i32 %33, ptr %6, align 4, !tbaa !12
  %34 = zext i32 %28 to i64
  %35 = getelementptr inbounds nuw i32, ptr %5, i64 %34
  %36 = load i32, ptr %35, align 4, !tbaa !12
  %37 = getelementptr inbounds nuw i8, ptr %8, i64 12
  store i32 %36, ptr %37, align 4, !tbaa !20
  %.not76 = icmp ugt i32 %22, %13
  br i1 %.not76, label %H5Z__nbit_compress_one_nooptype.exit, label %.lr.ph74

.lr.ph74:                                         ; preds = %18
  %38 = udiv i32 %13, %22
  %39 = zext i32 %22 to i64
  %40 = zext i32 %38 to i64
  br label %41

41:                                               ; preds = %.lr.ph74, %41
  %indvars.iv84 = phi i64 [ 0, %.lr.ph74 ], [ %indvars.iv.next85, %41 ]
  %42 = mul nuw i64 %indvars.iv84, %39
  %43 = add i64 %42, %1
  call fastcc void @H5Z__nbit_compress_one_atomic(ptr noundef %0, i64 noundef %43, ptr noundef %2, ptr noundef %3, ptr noundef %4, ptr noundef %8)
  %indvars.iv.next85 = add nuw nsw i64 %indvars.iv84, 1
  %44 = icmp samesign ult i64 %indvars.iv.next85, %40
  br i1 %44, label %41, label %H5Z__nbit_compress_one_nooptype.exit, !llvm.loop !40

45:                                               ; preds = %7
  %46 = zext i32 %14 to i64
  %47 = getelementptr inbounds nuw i32, ptr %5, i64 %46
  %48 = load i32, ptr %47, align 4, !tbaa !12
  %.not75 = icmp ugt i32 %48, %13
  br i1 %.not75, label %H5Z__nbit_compress_one_nooptype.exit, label %.lr.ph72

.lr.ph72:                                         ; preds = %45
  %49 = udiv i32 %13, %48
  %50 = zext i32 %48 to i64
  %51 = zext i32 %49 to i64
  br label %52

52:                                               ; preds = %.lr.ph72, %52
  %indvars.iv81 = phi i64 [ 0, %.lr.ph72 ], [ %indvars.iv.next82, %52 ]
  %53 = mul nuw i64 %indvars.iv81, %50
  %54 = add i64 %53, %1
  tail call fastcc void @H5Z__nbit_compress_one_array(ptr noundef %0, i64 noundef %54, ptr noundef %2, ptr noundef %3, ptr noundef %4, ptr noundef %5, ptr noundef %6)
  store i32 %14, ptr %6, align 4, !tbaa !12
  %indvars.iv.next82 = add nuw nsw i64 %indvars.iv81, 1
  %55 = icmp samesign ult i64 %indvars.iv.next82, %51
  br i1 %55, label %52, label %H5Z__nbit_compress_one_nooptype.exit, !llvm.loop !41

56:                                               ; preds = %7
  %57 = zext i32 %14 to i64
  %58 = getelementptr inbounds nuw i32, ptr %5, i64 %57
  %59 = load i32, ptr %58, align 4, !tbaa !12
  %.not = icmp ugt i32 %59, %13
  br i1 %.not, label %H5Z__nbit_compress_one_nooptype.exit, label %.lr.ph

.lr.ph:                                           ; preds = %56
  %60 = udiv i32 %13, %59
  %61 = zext i32 %59 to i64
  %62 = zext i32 %60 to i64
  br label %63

63:                                               ; preds = %.lr.ph, %63
  %indvars.iv = phi i64 [ 0, %.lr.ph ], [ %indvars.iv.next, %63 ]
  %64 = mul nuw i64 %indvars.iv, %61
  %65 = add i64 %64, %1
  tail call fastcc void @H5Z__nbit_compress_one_compound(ptr noundef %0, i64 noundef %65, ptr noundef %2, ptr noundef %3, ptr noundef %4, ptr noundef %5, ptr noundef %6)
  store i32 %14, ptr %6, align 4, !tbaa !12
  %indvars.iv.next = add nuw nsw i64 %indvars.iv, 1
  %66 = icmp samesign ult i64 %indvars.iv.next, %62
  br i1 %66, label %63, label %H5Z__nbit_compress_one_nooptype.exit, !llvm.loop !42

67:                                               ; preds = %7
  %68 = add i32 %9, 3
  store i32 %68, ptr %6, align 4, !tbaa !12
  %.not.i = icmp eq i32 %13, 0
  br i1 %.not.i, label %H5Z__nbit_compress_one_nooptype.exit, label %.lr.ph.i

.lr.ph.i:                                         ; preds = %67
  %69 = getelementptr i8, ptr %0, i64 %1
  %wide.trip.count.i = zext i32 %13 to i64
  %.pre.i = load i64, ptr %4, align 8, !tbaa !10
  br label %70

70:                                               ; preds = %103, %.lr.ph.i
  %71 = phi i64 [ %.pre.i, %.lr.ph.i ], [ %104, %103 ]
  %indvars.iv.i = phi i64 [ 0, %.lr.ph.i ], [ %indvars.iv.next.i, %103 ]
  %72 = getelementptr i8, ptr %69, i64 %indvars.iv.i
  %73 = load i8, ptr %72, align 1, !tbaa !30
  %74 = zext i8 %73 to i32
  %75 = trunc i64 %71 to i32
  %76 = sub i32 8, %75
  %77 = lshr i32 %74, %76
  %78 = shl nsw i32 -1, %75
  %79 = xor i32 %78, -1
  %80 = and i32 %77, %79
  %81 = load i64, ptr %3, align 8, !tbaa !10
  %82 = getelementptr inbounds nuw i8, ptr %2, i64 %81
  %83 = load i8, ptr %82, align 1, !tbaa !30
  %84 = trunc nuw i32 %80 to i8
  %85 = or i8 %83, %84
  store i8 %85, ptr %82, align 1, !tbaa !30
  %86 = load i64, ptr %4, align 8, !tbaa !10
  %87 = load i64, ptr %3, align 8, !tbaa !10
  %88 = add i64 %87, 1
  store i64 %88, ptr %3, align 8, !tbaa !10
  store i64 8, ptr %4, align 8, !tbaa !10
  %89 = icmp eq i64 %86, 8
  br i1 %89, label %103, label %90

90:                                               ; preds = %70
  %91 = sub i64 8, %86
  %92 = trunc i64 %91 to i32
  %93 = shl nsw i32 -1, %92
  %94 = xor i32 %93, -1
  %95 = and i32 %94, %74
  %96 = trunc i64 %86 to i32
  %97 = shl i32 %95, %96
  %98 = trunc i32 %97 to i8
  %99 = load i64, ptr %3, align 8, !tbaa !10
  %100 = getelementptr inbounds nuw i8, ptr %2, i64 %99
  store i8 %98, ptr %100, align 1, !tbaa !30
  %101 = load i64, ptr %4, align 8, !tbaa !10
  %102 = sub i64 %101, %91
  store i64 %102, ptr %4, align 8, !tbaa !10
  br label %103

103:                                              ; preds = %90, %70
  %104 = phi i64 [ 8, %70 ], [ %102, %90 ]
  %indvars.iv.next.i = add nuw nsw i64 %indvars.iv.i, 1
  %exitcond.not.i = icmp eq i64 %indvars.iv.next.i, %wide.trip.count.i
  br i1 %exitcond.not.i, label %H5Z__nbit_compress_one_nooptype.exit, label %70, !llvm.loop !43

H5Z__nbit_compress_one_nooptype.exit:             ; preds = %103, %63, %52, %41, %56, %45, %18, %67, %7
  call void @llvm.lifetime.end.p0(i64 16, ptr nonnull %8) #8
  ret void
}